; ModuleID = '50/2132.c'
source_filename = "50/2132.c"
target datalayout = "e-m:e-p270:32:32-p271:32:32-p272:64:64-i64:64-f80:128-n8:16:32:64-S128"
target triple = "x86_64-pc-linux-gnu"

@.str = private unnamed_addr constant [3 x i8] c"%d\00", align 1
@.str.1 = private unnamed_addr constant [4 x i8] c"%d\0A\00", align 1

; Function Attrs: noinline nounwind uwtable
define dso_local i32 @main() #0 {
  %1 = alloca i32, align 4
  %2 = alloca [13 x i32], align 16
  %3 = alloca i32, align 4
  %4 = alloca i32, align 4
  %5 = alloca i32, align 4
  %6 = alloca i32, align 4
  store i32 0, i32* %1, align 4
  %7 = call i32 (i8*, ...) @__isoc99_scanf(i8* getelementptr inbounds ([3 x i8], [3 x i8]* @.str, i64 0, i64 0), i32* %6)
  %8 = getelementptr inbounds [13 x i32], [13 x i32]* %2, i64 0, i64 1
  store i32 12, i32* %8, align 4
  %9 = getelementptr inbounds [13 x i32], [13 x i32]* %2, i64 0, i64 2
  store i32 43, i32* %9, align 8
  %10 = getelementptr inbounds [13 x i32], [13 x i32]* %2, i64 0, i64 3
  store i32 71, i32* %10, align 4
  %11 = getelementptr inbounds [13 x i32], [13 x i32]* %2, i64 0, i64 4
  store i32 102, i32* %11, align 16
  %12 = getelementptr inbounds [13 x i32], [13 x i32]* %2, i64 0, i64 5
  store i32 132, i32* %12, align 4
  %13 = getelementptr inbounds [13 x i32], [13 x i32]* %2, i64 0, i64 6
  store i32 163, i32* %13, align 8
  %14 = getelementptr inbounds [13 x i32], [13 x i32]* %2, i64 0, i64 7
  store i32 193, i32* %14, align 4
  %15 = getelementptr inbounds [13 x i32], [13 x i32]* %2, i64 0, i64 8
  store i32 224, i32* %15, align 16
  %16 = getelementptr inbounds [13 x i32], [13 x i32]* %2, i64 0, i64 9
  store i32 255, i32* %16, align 4
  %17 = getelementptr inbounds [13 x i32], [13 x i32]* %2, i64 0, i64 10
  store i32 285, i32* %17, align 8
  %18 = getelementptr inbounds [13 x i32], [13 x i32]* %2, i64 0, i64 11
  store i32 316, i32* %18, align 4
  %19 = getelementptr inbounds [13 x i32], [13 x i32]* %2, i64 0, i64 12
  store i32 346, i32* %19, align 16
  %20 = load i32, i32* %6, align 4
  %21 = sub nsw i32 %20, 5
  store i32 %21, i32* %4, align 4
  store i32 1, i32* %3, align 4
  br label %22

22:                                               ; preds = %45, %0
  %23 = load i32, i32* %3, align 4
  %24 = icmp slt i32 %23, 13
  br i1 %24, label %25, label %48

25:                                               ; preds = %22
  %26 = load i32, i32* %3, align 4
  %27 = sext i32 %26 to i64
  %28 = getelementptr inbounds [13 x i32], [13 x i32]* %2, i64 0, i64 %27
  %29 = load i32, i32* %28, align 4
  %30 = load i32, i32* %4, align 4
  %31 = add nsw i32 %29, %30
  %32 = load i32, i32* %3, align 4
  %33 = sext i32 %32 to i64
  %34 = getelementptr inbounds [13 x i32], [13 x i32]* %2, i64 0, i64 %33
  store i32 %31, i32* %34, align 4
  %35 = load i32, i32* %3, align 4
  %36 = sext i32 %35 to i64
  %37 = getelementptr inbounds [13 x i32], [13 x i32]* %2, i64 0, i64 %36
  %38 = load i32, i32* %37, align 4
  %39 = srem i32 %38, 7
  %40 = icmp eq i32 %39, 0
  br i1 %40, label %41, label %44

41:                                               ; preds = %25
  %42 = load i32, i32* %3, align 4
  %43 = call i32 (i8*, ...) @printf(i8* getelementptr inbounds ([4 x i8], [4 x i8]* @.str.1, i64 0, i64 0), i32 %42)
  br label %44

44:                                               ; preds = %41, %25
  br label %45

45:                                               ; preds = %44
  %46 = load i32, i32* %3, align 4
  %47 = add nsw i32 %46, 1
  store i32 %47, i32* %3, align 4
  br label %22

48:                                               ; preds = %22
  ret i32 0
}

declare dso_local i32 @__isoc99_scanf(i8*, ...) #1

declare dso_local i32 @printf(i8*, ...) #1


!llvm.module.flags = !{!0}
!llvm.ident = !{!1}

!0 = !{i32 1, !"wchar_size", i32 4}
!1 = !{!"clang version 10.0.0-4ubuntu1 "}
